; Function Attrs: nounwind sspstrong uwtable
define i64 @rsock_sockaddr_string_value(ptr noundef %0) local_unnamed_addr #0 {
  %2 = load volatile i64, ptr %0, align 8, !tbaa !35
  %3 = tail call i32 @rb_typeddata_is_kind_of(i64 noundef %2, ptr noundef nonnull @addrinfo_type) #21
  %.not = icmp eq i32 %3, 0
  br i1 %.not, label %13, label %4

4:                                                ; preds = %1
  %5 = tail call ptr @rb_check_typeddata(i64 noundef %2, ptr noundef nonnull @addrinfo_type) #21
  %.not.i.i = icmp eq ptr %5, null
  br i1 %.not.i.i, label %6, label %addrinfo_to_sockaddr.exit

6:                                                ; preds = %4
  %7 = load i64, ptr @rb_eTypeError, align 8, !tbaa !35
  tail call void (i64, ptr, ...) @rb_raise(i64 noundef %7, ptr noundef nonnull @.str.101) #23
  unreachable

addrinfo_to_sockaddr.exit:                        ; preds = %4
  %8 = getelementptr inbounds nuw i8, ptr %5, i64 32
  %9 = getelementptr inbounds nuw i8, ptr %5, i64 28
  %10 = load i32, ptr %9, align 4, !tbaa !118
  %11 = zext i32 %10 to i64
  %12 = tail call i64 @rb_str_new(ptr noundef nonnull %8, i64 noundef %11) #21
  store volatile i64 %12, ptr %0, align 8, !tbaa !35
  br label %13

13:                                               ; preds = %addrinfo_to_sockaddr.exit, %1
  %14 = tail call i64 @rb_string_value(ptr noundef nonnull %0) #21
  %15 = load volatile i64, ptr %0, align 8, !tbaa !35
  ret i64 %15
}